; Function Attrs: mustprogress nounwind uwtable
define void @_ZN6casadi14SundialsMemoryD2Ev(ptr noundef nonnull align 8 dereferenceable(524) %0) unnamed_addr #4 align 2 personality ptr @__gxx_personality_v0 {
  %2 = getelementptr inbounds i8, ptr %0, i64 144
  %3 = load ptr, ptr %2, align 8
  %.not = icmp eq ptr %3, null
  br i1 %.not, label %5, label %4

4:                                                ; preds = %1
  invoke void @N_VDestroy_Serial(ptr noundef nonnull %3)
          to label %5 unwind label %22

5:                                                ; preds = %4, %1
  %6 = getelementptr inbounds i8, ptr %0, i64 160
  %7 = load ptr, ptr %6, align 8
  %.not5 = icmp eq ptr %7, null
  br i1 %.not5, label %9, label %8

8:                                                ; preds = %5
  invoke void @N_VDestroy_Serial(ptr noundef nonnull %7)
          to label %9 unwind label %22

9:                                                ; preds = %8, %5
  %10 = getelementptr inbounds i8, ptr %0, i64 168
  %11 = load ptr, ptr %10, align 8
  %.not6 = icmp eq ptr %11, null
  br i1 %.not6, label %13, label %12

12:                                               ; preds = %9
  invoke void @N_VDestroy_Serial(ptr noundef nonnull %11)
          to label %13 unwind label %22

13:                                               ; preds = %12, %9
  %14 = getelementptr inbounds i8, ptr %0, i64 184
  %15 = load ptr, ptr %14, align 8
  %.not7 = icmp eq ptr %15, null
  br i1 %.not7, label %17, label %16

16:                                               ; preds = %13
  invoke void @N_VDestroy_Serial(ptr noundef nonnull %15)
          to label %17 unwind label %22

17:                                               ; preds = %16, %13
  %18 = getelementptr inbounds i8, ptr %0, i64 512
  %19 = load ptr, ptr %18, align 8
  %.not8 = icmp eq ptr %19, null
  br i1 %.not8, label %21, label %20

20:                                               ; preds = %17
  invoke void @N_VDestroy_Serial(ptr noundef nonnull %19)
          to label %21 unwind label %22

21:                                               ; preds = %20, %17
  tail call void @_ZN6casadi12OracleMemoryD2Ev(ptr noundef nonnull align 8 dereferenceable(112) %0) #23
  ret void

22:                                               ; preds = %20, %16, %12, %8, %4
  %23 = landingpad { ptr, i32 }
          catch ptr null
  %24 = extractvalue { ptr, i32 } %23, 0
  tail call void @__clang_call_terminate(ptr %24) #25
  unreachable
}